target datalayout = "e-m:e-p270:32:32-p271:32:32-p272:64:64-i64:64-i128:128-f80:128-n8:16:32:64-S128"
target triple = "x86_64-pc-linux-gnu"

%struct.strbuf = type { i64, i64, ptr }

@.str = private unnamed_addr constant [9 x i8] c"/dev/tty\00", align 1
@git_terminal_prompt.buf = internal global %struct.strbuf { i64 0, i64 0, ptr @strbuf_slopbuf }, align 8
@.str.3 = private unnamed_addr constant [2 x i8] c"r\00", align 1
@.str.4 = private unnamed_addr constant [2 x i8] c"w\00", align 1

; Function Attrs: nounwind uwtable
define internal i32 @disable_echo(i32 noundef %0) #0 {
  %2 = alloca i32, align 4
  store i32 %0, ptr %2, align 4, !tbaa !4
  %3 = load i32, ptr %2, align 4, !tbaa !4
  %4 = call i32 @disable_bits(i32 noundef %3, i32 noundef 8)
  ret i32 %4
}

; Function Attrs: nounwind uwtable
define dso_local ptr @git_terminal_prompt(ptr noundef %0, i32 noundef %1) #0 {
  %3 = alloca ptr, align 8
  %4 = alloca ptr, align 8
  %5 = alloca i32, align 4
  %6 = alloca i32, align 4
  %7 = alloca ptr, align 8
  %8 = alloca ptr, align 8
  %9 = alloca i32, align 4
  store ptr %0, ptr %4, align 8, !tbaa !8
  store i32 %1, ptr %5, align 4, !tbaa !4
  call void @llvm.lifetime.start.p0(i64 4, ptr %6) #10
  call void @llvm.lifetime.start.p0(i64 8, ptr %7) #10
  call void @llvm.lifetime.start.p0(i64 8, ptr %8) #10
  %10 = call ptr @git_fopen(ptr noundef @.str, ptr noundef @.str.3)
  store ptr %10, ptr %7, align 8, !tbaa !16
  %11 = load ptr, ptr %7, align 8, !tbaa !16
  %12 = icmp ne ptr %11, null
  br i1 %12, label %14, label %13

13:                                               ; preds = %2
  store ptr null, ptr %3, align 8
  store i32 1, ptr %9, align 4
  br label %57

14:                                               ; preds = %2
  %15 = call ptr @git_fopen(ptr noundef @.str, ptr noundef @.str.4)
  store ptr %15, ptr %8, align 8, !tbaa !16
  %16 = load ptr, ptr %8, align 8, !tbaa !16
  %17 = icmp ne ptr %16, null
  br i1 %17, label %21, label %18

18:                                               ; preds = %14
  %19 = load ptr, ptr %7, align 8, !tbaa !16
  %20 = call i32 @fclose(ptr noundef %19)
  store ptr null, ptr %3, align 8
  store i32 1, ptr %9, align 4
  br label %57

21:                                               ; preds = %14
  %22 = load i32, ptr %5, align 4, !tbaa !4
  %23 = icmp ne i32 %22, 0
  br i1 %23, label %32, label %24

24:                                               ; preds = %21
  %25 = call i32 @disable_echo(i32 noundef 0)
  %26 = icmp ne i32 %25, 0
  br i1 %26, label %27, label %32

27:                                               ; preds = %24
  %28 = load ptr, ptr %7, align 8, !tbaa !16
  %29 = call i32 @fclose(ptr noundef %28)
  %30 = load ptr, ptr %8, align 8, !tbaa !16
  %31 = call i32 @fclose(ptr noundef %30)
  store ptr null, ptr %3, align 8
  store i32 1, ptr %9, align 4
  br label %57

32:                                               ; preds = %24, %21
  %33 = load ptr, ptr %4, align 8, !tbaa !8
  %34 = load ptr, ptr %8, align 8, !tbaa !16
  %35 = call i32 @fputs(ptr noundef %33, ptr noundef %34)
  %36 = load ptr, ptr %8, align 8, !tbaa !16
  %37 = call i32 @fflush(ptr noundef %36)
  %38 = load ptr, ptr %7, align 8, !tbaa !16
  %39 = call i32 @strbuf_getline_lf(ptr noundef @git_terminal_prompt.buf, ptr noundef %38)
  store i32 %39, ptr %6, align 4, !tbaa !4
  %40 = load i32, ptr %5, align 4, !tbaa !4
  %41 = icmp ne i32 %40, 0
  br i1 %41, label %47, label %42

42:                                               ; preds = %32
  %43 = load ptr, ptr %8, align 8, !tbaa !16
  %44 = call i32 @putc(i32 noundef 10, ptr noundef %43)
  %45 = load ptr, ptr %8, align 8, !tbaa !16
  %46 = call i32 @fflush(ptr noundef %45)
  br label %47

47:                                               ; preds = %42, %32
  call void @restore_term()
  %48 = load ptr, ptr %7, align 8, !tbaa !16
  %49 = call i32 @fclose(ptr noundef %48)
  %50 = load ptr, ptr %8, align 8, !tbaa !16
  %51 = call i32 @fclose(ptr noundef %50)
  %52 = load i32, ptr %6, align 4, !tbaa !4
  %53 = icmp eq i32 %52, -1
  br i1 %53, label %54, label %55

54:                                               ; preds = %47
  store ptr null, ptr %3, align 8
  store i32 1, ptr %9, align 4
  br label %57

55:                                               ; preds = %47
  %56 = load ptr, ptr getelementptr inbounds nuw (%struct.strbuf, ptr @git_terminal_prompt.buf, i32 0, i32 2), align 8, !tbaa !18
  store ptr %56, ptr %3, align 8
  store i32 1, ptr %9, align 4
  br label %57

57:                                               ; preds = %55, %54, %27, %18, %13
  call void @llvm.lifetime.end.p0(i64 8, ptr %8) #10
  call void @llvm.lifetime.end.p0(i64 8, ptr %7) #10
  call void @llvm.lifetime.end.p0(i64 4, ptr %6) #10
  %58 = load ptr, ptr %3, align 8
  ret ptr %58
}