; Function Attrs: nounwind uwtable
define dso_local ptr @git_terminal_prompt(ptr noundef readonly captures(none) %0, i32 noundef %1) local_unnamed_addr #0 {
  %3 = tail call ptr @git_fopen(ptr noundef nonnull @.str, ptr noundef nonnull @.str.3) #13
  %.not = icmp eq ptr %3, null
  br i1 %.not, label %26, label %4

4:                                                ; preds = %2
  %5 = tail call ptr @git_fopen(ptr noundef nonnull @.str, ptr noundef nonnull @.str.4) #13
  %.not18 = icmp eq ptr %5, null
  br i1 %.not18, label %6, label %8

6:                                                ; preds = %4
  %7 = tail call i32 @fclose(ptr noundef nonnull %3)
  br label %26

8:                                                ; preds = %4
  %.not19 = icmp eq i32 %1, 0
  br i1 %.not19, label %9, label %14

9:                                                ; preds = %8
  %10 = tail call fastcc range(i32 -1, 1) i32 @disable_bits(i32 noundef 0, i32 noundef 8)
  %.not20 = icmp eq i32 %10, 0
  br i1 %.not20, label %14, label %11

11:                                               ; preds = %9
  %12 = tail call i32 @fclose(ptr noundef nonnull %3)
  %13 = tail call i32 @fclose(ptr noundef nonnull %5)
  br label %26

14:                                               ; preds = %9, %8
  %15 = tail call i32 @fputs(ptr noundef %0, ptr noundef nonnull %5)
  %16 = tail call i32 @fflush(ptr noundef nonnull %5)
  %17 = tail call i32 @strbuf_getline_lf(ptr noundef nonnull @git_terminal_prompt.buf, ptr noundef nonnull %3) #13
  br i1 %.not19, label %18, label %21

18:                                               ; preds = %14
  %19 = tail call i32 @putc(i32 noundef 10, ptr noundef nonnull %5)
  %20 = tail call i32 @fflush(ptr noundef nonnull %5)
  br label %21

21:                                               ; preds = %18, %14
  tail call void @restore_term()
  %22 = tail call i32 @fclose(ptr noundef nonnull %3)
  %23 = tail call i32 @fclose(ptr noundef nonnull %5)
  %24 = icmp eq i32 %17, -1
  %25 = load ptr, ptr getelementptr inbounds nuw (i8, ptr @git_terminal_prompt.buf, i64 16), align 8
  %spec.select = select i1 %24, ptr null, ptr %25
  br label %26

26:                                               ; preds = %21, %2, %11, %6
  %.0 = phi ptr [ null, %11 ], [ null, %6 ], [ null, %2 ], [ %spec.select, %21 ]
  ret ptr %.0
}